target datalayout = "e-m:e-p270:32:32-p271:32:32-p272:64:64-i64:64-i128:128-f80:128-n8:16:32:64-S128"
target triple = "x86_64-pc-linux-gnu"

%struct._e_guid_t = type { i32, i16, i16, [8 x i8] }
%struct.CFullPropSpec = type { %struct._e_guid_t, i32, %union.anon.2 }
%union.anon.2 = type { ptr }
%struct.__va_list_tag = type { i32, i32, ptr, ptr }
%struct.CContentRestriction = type { %struct.CFullPropSpec, ptr, i32, i32 }

@hf_mswsp_lcid = internal global i32 0, align 4
@.str.83 = private unnamed_addr constant [5 x i8] c"lcid\00", align 1
@hf_mswsp_lcid_sortid = internal global i32 0, align 4
@hf_mswsp_lcid_langid = internal global i32 0, align 4
@hf_mswsp_ccontentrestrict_cc = internal global i32 0, align 4
@hf_mswsp_ccontentrestrict_phrase = internal global i32 0, align 4
@hf_mswsp_ccontentrestrict_method = internal global i32 0, align 4
@ett_CContentRestriction = internal global i32 0, align 4
@ett_LCID = internal global i32 0, align 4
@.str.1288 = private unnamed_addr constant [9 x i8] c"Property\00", align 1
@.str.1317 = private unnamed_addr constant [9 x i8] c"%s: 0x%x\00", align 1
@.str.1319 = private unnamed_addr constant [9 x i8] c"Padding1\00", align 1
@.str.1320 = private unnamed_addr constant [9 x i8] c"Padding2\00", align 1

; Function Attrs: null_pointer_is_valid sspstrong uwtable
define internal i32 @parse_lcid(ptr noundef %0, i32 noundef %1, ptr noundef %2, ptr noundef %3) #0 {
  %5 = alloca ptr, align 8
  %6 = alloca i32, align 4
  %7 = alloca ptr, align 8
  %8 = alloca ptr, align 8
  %9 = alloca ptr, align 8
  %10 = alloca ptr, align 8
  %11 = alloca i32, align 4
  store ptr %0, ptr %5, align 8
  store i32 %1, ptr %6, align 4
  store ptr %2, ptr %7, align 8
  store ptr %3, ptr %8, align 8
  call void @llvm.lifetime.start.p0(i64 8, ptr %9) #11
  call void @llvm.lifetime.start.p0(i64 8, ptr %10) #11
  call void @llvm.lifetime.start.p0(i64 4, ptr %11) #11
  %12 = load ptr, ptr %5, align 8
  %13 = load i32, ptr %6, align 4
  %14 = call i32 @tvb_get_letohl(ptr noundef %12, i32 noundef %13)
  store i32 %14, ptr %11, align 4
  %15 = load ptr, ptr %7, align 8
  %16 = load i32, ptr @hf_mswsp_lcid, align 4
  %17 = load ptr, ptr %5, align 8
  %18 = load i32, ptr %6, align 4
  %19 = load i32, ptr %11, align 4
  %20 = load ptr, ptr %8, align 8
  %21 = load i32, ptr %11, align 4
  %22 = call ptr (ptr, i32, ptr, i32, i32, i32, ptr, ...) @proto_tree_add_uint_format(ptr noundef %15, i32 noundef %16, ptr noundef %17, i32 noundef %18, i32 noundef 4, i32 noundef %19, ptr noundef @.str.1317, ptr noundef %20, i32 noundef %21)
  store ptr %22, ptr %9, align 8
  %23 = load ptr, ptr %9, align 8
  %24 = load i32, ptr @ett_LCID, align 4
  %25 = call ptr @proto_item_add_subtree(ptr noundef %23, i32 noundef %24)
  store ptr %25, ptr %10, align 8
  %26 = load ptr, ptr %10, align 8
  %27 = load i32, ptr @hf_mswsp_lcid_langid, align 4
  %28 = load ptr, ptr %5, align 8
  %29 = load i32, ptr %6, align 4
  %30 = add i32 %29, 2
  %31 = load i32, ptr %11, align 4
  %32 = call ptr @proto_tree_add_uint(ptr noundef %26, i32 noundef %27, ptr noundef %28, i32 noundef %30, i32 noundef 2, i32 noundef %31)
  %33 = load ptr, ptr %10, align 8
  %34 = load i32, ptr @hf_mswsp_lcid_sortid, align 4
  %35 = load ptr, ptr %5, align 8
  %36 = load i32, ptr %6, align 4
  %37 = add i32 %36, 1
  %38 = load i32, ptr %11, align 4
  %39 = lshr i32 %38, 16
  %40 = and i32 %39, 15
  %41 = call ptr @proto_tree_add_uint(ptr noundef %33, i32 noundef %34, ptr noundef %35, i32 noundef %37, i32 noundef 1, i32 noundef %40)
  %42 = load i32, ptr %6, align 4
  %43 = add i32 %42, 4
  store i32 %43, ptr %6, align 4
  %44 = load i32, ptr %6, align 4
  call void @llvm.lifetime.end.p0(i64 4, ptr %11) #11
  call void @llvm.lifetime.end.p0(i64 8, ptr %10) #11
  call void @llvm.lifetime.end.p0(i64 8, ptr %9) #11
  ret i32 %44
}

; Function Attrs: null_pointer_is_valid sspstrong uwtable
define internal i32 @parse_CContentRestriction(ptr noundef %0, i32 noundef %1, ptr noundef %2, ptr noundef %3, ptr noundef %4, ptr noundef %5, ...) #0 {
  %7 = alloca ptr, align 8
  %8 = alloca i32, align 4
  %9 = alloca ptr, align 8
  %10 = alloca ptr, align 8
  %11 = alloca ptr, align 8
  %12 = alloca ptr, align 8
  %13 = alloca ptr, align 8
  %14 = alloca ptr, align 8
  %15 = alloca [1 x %struct.__va_list_tag], align 16
  %16 = alloca i32, align 4
  %17 = alloca ptr, align 8
  store ptr %0, ptr %7, align 8
  store i32 %1, ptr %8, align 4
  store ptr %2, ptr %9, align 8
  store ptr %3, ptr %10, align 8
  store ptr %4, ptr %11, align 8
  store ptr %5, ptr %12, align 8
  call void @llvm.lifetime.start.p0(i64 8, ptr %13) #11
  call void @llvm.lifetime.start.p0(i64 8, ptr %14) #11
  call void @llvm.lifetime.start.p0(i64 24, ptr %15) #11
  call void @llvm.lifetime.start.p0(i64 4, ptr %16) #11
  call void @llvm.lifetime.start.p0(i64 8, ptr %17) #11
  %18 = getelementptr inbounds [1 x %struct.__va_list_tag], ptr %15, i64 0, i64 0
  call void @llvm.va_start.p0(ptr %18)
  %19 = call ptr @wmem_packet_scope()
  %20 = load ptr, ptr %12, align 8
  %21 = getelementptr inbounds [1 x %struct.__va_list_tag], ptr %15, i64 0, i64 0
  %22 = call noalias ptr @wmem_strdup_vprintf(ptr noundef %19, ptr noundef %20, ptr noundef %21)
  store ptr %22, ptr %17, align 8
  %23 = getelementptr inbounds [1 x %struct.__va_list_tag], ptr %15, i64 0, i64 0
  call void @llvm.va_end.p0(ptr %23)
  %24 = load ptr, ptr %9, align 8
  %25 = load ptr, ptr %7, align 8
  %26 = load i32, ptr %8, align 4
  %27 = load i32, ptr @ett_CContentRestriction, align 4
  %28 = load ptr, ptr %17, align 8
  %29 = call ptr @proto_tree_add_subtree(ptr noundef %24, ptr noundef %25, i32 noundef %26, i32 noundef 0, i32 noundef %27, ptr noundef %14, ptr noundef %28)
  store ptr %29, ptr %13, align 8
  %30 = load ptr, ptr %7, align 8
  %31 = load i32, ptr %8, align 4
  %32 = load ptr, ptr %13, align 8
  %33 = load ptr, ptr %10, align 8
  %34 = load ptr, ptr %11, align 8
  %35 = getelementptr inbounds nuw %struct.CContentRestriction, ptr %34, i32 0, i32 0
  %36 = call i32 (ptr, i32, ptr, ptr, ptr, ptr, ...) @parse_CFullPropSpec(ptr noundef %30, i32 noundef %31, ptr noundef %32, ptr noundef %33, ptr noundef %35, ptr noundef @.str.1288)
  store i32 %36, ptr %8, align 4
  %37 = load ptr, ptr %7, align 8
  %38 = load i32, ptr %8, align 4
  %39 = load ptr, ptr %10, align 8
  %40 = call i32 (ptr, i32, i32, ptr, ptr, ...) @parse_padding(ptr noundef %37, i32 noundef %38, i32 noundef 4, ptr noundef %39, ptr noundef @.str.1319)
  store i32 %40, ptr %8, align 4
  %41 = load ptr, ptr %7, align 8
  %42 = load i32, ptr %8, align 4
  %43 = call i32 @tvb_get_letohl(ptr noundef %41, i32 noundef %42)
  store i32 %43, ptr %16, align 4
  %44 = load ptr, ptr %13, align 8
  %45 = load i32, ptr @hf_mswsp_ccontentrestrict_cc, align 4
  %46 = load ptr, ptr %7, align 8
  %47 = load i32, ptr %8, align 4
  %48 = load i32, ptr %16, align 4
  %49 = call ptr @proto_tree_add_uint(ptr noundef %44, i32 noundef %45, ptr noundef %46, i32 noundef %47, i32 noundef 4, i32 noundef %48)
  %50 = load i32, ptr %8, align 4
  %51 = add i32 %50, 4
  store i32 %51, ptr %8, align 4
  %52 = load ptr, ptr %13, align 8
  %53 = load i32, ptr @hf_mswsp_ccontentrestrict_phrase, align 4
  %54 = load ptr, ptr %7, align 8
  %55 = load i32, ptr %8, align 4
  %56 = load i32, ptr %16, align 4
  %57 = mul i32 2, %56
  %58 = call ptr @wmem_packet_scope()
  %59 = load ptr, ptr %11, align 8
  %60 = getelementptr inbounds nuw %struct.CContentRestriction, ptr %59, i32 0, i32 1
  %61 = call ptr @proto_tree_add_item_ret_string(ptr noundef %52, i32 noundef %53, ptr noundef %54, i32 noundef %55, i32 noundef %57, i32 noundef -2147483642, ptr noundef %58, ptr noundef %60)
  %62 = load i32, ptr %16, align 4
  %63 = mul i32 2, %62
  %64 = load i32, ptr %8, align 4
  %65 = add i32 %64, %63
  store i32 %65, ptr %8, align 4
  %66 = load ptr, ptr %7, align 8
  %67 = load i32, ptr %8, align 4
  %68 = load ptr, ptr %10, align 8
  %69 = call i32 (ptr, i32, i32, ptr, ptr, ...) @parse_padding(ptr noundef %66, i32 noundef %67, i32 noundef 4, ptr noundef %68, ptr noundef @.str.1320)
  store i32 %69, ptr %8, align 4
  %70 = load ptr, ptr %7, align 8
  %71 = load i32, ptr %8, align 4
  %72 = call i32 @tvb_get_letohl(ptr noundef %70, i32 noundef %71)
  %73 = load ptr, ptr %11, align 8
  %74 = getelementptr inbounds nuw %struct.CContentRestriction, ptr %73, i32 0, i32 2
  store i32 %72, ptr %74, align 8
  %75 = load ptr, ptr %7, align 8
  %76 = load i32, ptr %8, align 4
  %77 = load ptr, ptr %13, align 8
  %78 = call i32 @parse_lcid(ptr noundef %75, i32 noundef %76, ptr noundef %77, ptr noundef @.str.83)
  store i32 %78, ptr %8, align 4
  %79 = load ptr, ptr %7, align 8
  %80 = load i32, ptr %8, align 4
  %81 = call i32 @tvb_get_letohl(ptr noundef %79, i32 noundef %80)
  %82 = load ptr, ptr %11, align 8
  %83 = getelementptr inbounds nuw %struct.CContentRestriction, ptr %82, i32 0, i32 3
  store i32 %81, ptr %83, align 4
  %84 = load ptr, ptr %13, align 8
  %85 = load i32, ptr @hf_mswsp_ccontentrestrict_method, align 4
  %86 = load ptr, ptr %7, align 8
  %87 = load i32, ptr %8, align 4
  %88 = load ptr, ptr %11, align 8
  %89 = getelementptr inbounds nuw %struct.CContentRestriction, ptr %88, i32 0, i32 3
  %90 = load i32, ptr %89, align 4
  %91 = call ptr @proto_tree_add_uint(ptr noundef %84, i32 noundef %85, ptr noundef %86, i32 noundef %87, i32 noundef 4, i32 noundef %90)
  %92 = load i32, ptr %8, align 4
  %93 = add i32 %92, 4
  store i32 %93, ptr %8, align 4
  %94 = load ptr, ptr %14, align 8
  %95 = load ptr, ptr %7, align 8
  %96 = load i32, ptr %8, align 4
  call void @proto_item_set_end(ptr noundef %94, ptr noundef %95, i32 noundef %96)
  %97 = load i32, ptr %8, align 4
  call void @llvm.lifetime.end.p0(i64 8, ptr %17) #11
  call void @llvm.lifetime.end.p0(i64 4, ptr %16) #11
  call void @llvm.lifetime.end.p0(i64 24, ptr %15) #11
  call void @llvm.lifetime.end.p0(i64 8, ptr %14) #11
  call void @llvm.lifetime.end.p0(i64 8, ptr %13) #11
  ret i32 %97
}